; ModuleID = '5/680.c'
source_filename = "5/680.c"
target datalayout = "e-m:e-p270:32:32-p271:32:32-p272:64:64-i64:64-f80:128-n8:16:32:64-S128"
target triple = "x86_64-pc-linux-gnu"

@.str = private unnamed_addr constant [4 x i8] c"%lf\00", align 1
@.str.1 = private unnamed_addr constant [3 x i8] c"%s\00", align 1
@.str.2 = private unnamed_addr constant [6 x i8] c"error\00", align 1
@.str.3 = private unnamed_addr constant [4 x i8] c"yes\00", align 1
@.str.4 = private unnamed_addr constant [3 x i8] c"no\00", align 1

; Function Attrs: noinline nounwind uwtable
define dso_local i32 @main() #0 {
  %1 = alloca i32, align 4
  %2 = alloca [100 x i8], align 16
  %3 = alloca [100 x i8], align 16
  %4 = alloca i32, align 4
  %5 = alloca i32, align 4
  %6 = alloca i32, align 4
  %7 = alloca i32, align 4
  %8 = alloca i32, align 4
  %9 = alloca i32, align 4
  %10 = alloca i32, align 4
  %11 = alloca i32, align 4
  %12 = alloca double, align 8
  %13 = alloca double, align 8
  %14 = alloca double, align 8
  store i32 0, i32* %1, align 4
  store i32 0, i32* %6, align 4
  store i32 0, i32* %10, align 4
  store i32 0, i32* %11, align 4
  %15 = call i32 (i8*, ...) @__isoc99_scanf(i8* getelementptr inbounds ([4 x i8], [4 x i8]* @.str, i64 0, i64 0), double* %12)
  %16 = getelementptr inbounds [100 x i8], [100 x i8]* %2, i64 0, i64 0
  %17 = call i32 (i8*, ...) @__isoc99_scanf(i8* getelementptr inbounds ([3 x i8], [3 x i8]* @.str.1, i64 0, i64 0), i8* %16)
  %18 = getelementptr inbounds [100 x i8], [100 x i8]* %3, i64 0, i64 0
  %19 = call i32 (i8*, ...) @__isoc99_scanf(i8* getelementptr inbounds ([3 x i8], [3 x i8]* @.str.1, i64 0, i64 0), i8* %18)
  %20 = getelementptr inbounds [100 x i8], [100 x i8]* %2, i64 0, i64 0
  %21 = call i64 @strlen(i8* %20) #3
  %22 = trunc i64 %21 to i32
  store i32 %22, i32* %7, align 4
  %23 = getelementptr inbounds [100 x i8], [100 x i8]* %3, i64 0, i64 0
  %24 = call i64 @strlen(i8* %23) #3
  %25 = trunc i64 %24 to i32
  store i32 %25, i32* %8, align 4
  %26 = load i32, i32* %7, align 4
  %27 = load i32, i32* %8, align 4
  %28 = icmp ne i32 %26, %27
  br i1 %28, label %29, label %31

29:                                               ; preds = %0
  %30 = call i32 (i8*, ...) @printf(i8* getelementptr inbounds ([6 x i8], [6 x i8]* @.str.2, i64 0, i64 0))
  br label %172

31:                                               ; preds = %0
  store i32 0, i32* %5, align 4
  br label %32

32:                                               ; preds = %71, %31
  %33 = load i32, i32* %5, align 4
  %34 = sext i32 %33 to i64
  %35 = getelementptr inbounds [100 x i8], [100 x i8]* %2, i64 0, i64 %34
  %36 = load i8, i8* %35, align 1
  %37 = icmp ne i8 %36, 0
  br i1 %37, label %38, label %74

38:                                               ; preds = %32
  %39 = load i32, i32* %5, align 4
  %40 = sext i32 %39 to i64
  %41 = getelementptr inbounds [100 x i8], [100 x i8]* %2, i64 0, i64 %40
  %42 = load i8, i8* %41, align 1
  %43 = sext i8 %42 to i32
  %44 = icmp eq i32 %43, 65
  br i1 %44, label %70, label %45

45:                                               ; preds = %38
  %46 = load i32, i32* %5, align 4
  %47 = sext i32 %46 to i64
  %48 = getelementptr inbounds [100 x i8], [100 x i8]* %2, i64 0, i64 %47
  %49 = load i8, i8* %48, align 1
  %50 = sext i8 %49 to i32
  %51 = icmp eq i32 %50, 84
  br i1 %51, label %70, label %52

52:                                               ; preds = %45
  %53 = load i32, i32* %5, align 4
  %54 = sext i32 %53 to i64
  %55 = getelementptr inbounds [100 x i8], [100 x i8]* %2, i64 0, i64 %54
  %56 = load i8, i8* %55, align 1
  %57 = sext i8 %56 to i32
  %58 = icmp eq i32 %57, 67
  br i1 %58, label %70, label %59

59:                                               ; preds = %52
  %60 = load i32, i32* %5, align 4
  %61 = sext i32 %60 to i64
  %62 = getelementptr inbounds [100 x i8], [100 x i8]* %2, i64 0, i64 %61
  %63 = load i8, i8* %62, align 1
  %64 = sext i8 %63 to i32
  %65 = icmp eq i32 %64, 71
  br i1 %65, label %70, label %66

66:                                               ; preds = %59
  %67 = call i32 (i8*, ...) @printf(i8* getelementptr inbounds ([6 x i8], [6 x i8]* @.str.2, i64 0, i64 0))
  %68 = load i32, i32* %10, align 4
  %69 = add nsw i32 %68, 1
  store i32 %69, i32* %10, align 4
  br label %74

70:                                               ; preds = %59, %52, %45, %38
  br label %71

71:                                               ; preds = %70
  %72 = load i32, i32* %5, align 4
  %73 = add nsw i32 %72, 1
  store i32 %73, i32* %5, align 4
  br label %32

74:                                               ; preds = %66, %32
  %75 = load i32, i32* %10, align 4
  %76 = icmp eq i32 %75, 0
  br i1 %76, label %77, label %121

77:                                               ; preds = %74
  store i32 0, i32* %5, align 4
  br label %78

78:                                               ; preds = %117, %77
  %79 = load i32, i32* %5, align 4
  %80 = sext i32 %79 to i64
  %81 = getelementptr inbounds [100 x i8], [100 x i8]* %3, i64 0, i64 %80
  %82 = load i8, i8* %81, align 1
  %83 = icmp ne i8 %82, 0
  br i1 %83, label %84, label %120

84:                                               ; preds = %78
  %85 = load i32, i32* %5, align 4
  %86 = sext i32 %85 to i64
  %87 = getelementptr inbounds [100 x i8], [100 x i8]* %3, i64 0, i64 %86
  %88 = load i8, i8* %87, align 1
  %89 = sext i8 %88 to i32
  %90 = icmp eq i32 %89, 65
  br i1 %90, label %116, label %91

91:                                               ; preds = %84
  %92 = load i32, i32* %5, align 4
  %93 = sext i32 %92 to i64
  %94 = getelementptr inbounds [100 x i8], [100 x i8]* %3, i64 0, i64 %93
  %95 = load i8, i8* %94, align 1
  %96 = sext i8 %95 to i32
  %97 = icmp eq i32 %96, 84
  br i1 %97, label %116, label %98

98:                                               ; preds = %91
  %99 = load i32, i32* %5, align 4
  %100 = sext i32 %99 to i64
  %101 = getelementptr inbounds [100 x i8], [100 x i8]* %3, i64 0, i64 %100
  %102 = load i8, i8* %101, align 1
  %103 = sext i8 %102 to i32
  %104 = icmp eq i32 %103, 67
  br i1 %104, label %116, label %105

105:                                              ; preds = %98
  %106 = load i32, i32* %5, align 4
  %107 = sext i32 %106 to i64
  %108 = getelementptr inbounds [100 x i8], [100 x i8]* %3, i64 0, i64 %107
  %109 = load i8, i8* %108, align 1
  %110 = sext i8 %109 to i32
  %111 = icmp eq i32 %110, 71
  br i1 %111, label %116, label %112

112:                                              ; preds = %105
  %113 = call i32 (i8*, ...) @printf(i8* getelementptr inbounds ([6 x i8], [6 x i8]* @.str.2, i64 0, i64 0))
  %114 = load i32, i32* %11, align 4
  %115 = add nsw i32 %114, 1
  store i32 %115, i32* %11, align 4
  br label %120

116:                                              ; preds = %105, %98, %91, %84
  br label %117

117:                                              ; preds = %116
  %118 = load i32, i32* %5, align 4
  %119 = add nsw i32 %118, 1
  store i32 %119, i32* %5, align 4
  br label %78

120:                                              ; preds = %112, %78
  br label %121

121:                                              ; preds = %120, %74
  %122 = load i32, i32* %10, align 4
  %123 = icmp eq i32 %122, 0
  br i1 %123, label %124, label %171

124:                                              ; preds = %121
  %125 = load i32, i32* %11, align 4
  %126 = icmp eq i32 %125, 0
  br i1 %126, label %127, label %171

127:                                              ; preds = %124
  store i32 0, i32* %4, align 4
  br label %128

128:                                              ; preds = %150, %127
  %129 = load i32, i32* %4, align 4
  %130 = sext i32 %129 to i64
  %131 = getelementptr inbounds [100 x i8], [100 x i8]* %2, i64 0, i64 %130
  %132 = load i8, i8* %131, align 1
  %133 = icmp ne i8 %132, 0
  br i1 %133, label %134, label %153

134:                                              ; preds = %128
  %135 = load i32, i32* %4, align 4
  %136 = sext i32 %135 to i64
  %137 = getelementptr inbounds [100 x i8], [100 x i8]* %2, i64 0, i64 %136
  %138 = load i8, i8* %137, align 1
  %139 = sext i8 %138 to i32
  %140 = load i32, i32* %4, align 4
  %141 = sext i32 %140 to i64
  %142 = getelementptr inbounds [100 x i8], [100 x i8]* %3, i64 0, i64 %141
  %143 = load i8, i8* %142, align 1
  %144 = sext i8 %143 to i32
  %145 = icmp eq i32 %139, %144
  br i1 %145, label %146, label %149

146:                                              ; preds = %134
  %147 = load i32, i32* %6, align 4
  %148 = add nsw i32 %147, 1
  store i32 %148, i32* %6, align 4
  br label %149

149:                                              ; preds = %146, %134
  br label %150

150:                                              ; preds = %149
  %151 = load i32, i32* %4, align 4
  %152 = add nsw i32 %151, 1
  store i32 %152, i32* %4, align 4
  br label %128

153:                                              ; preds = %128
  %154 = getelementptr inbounds [100 x i8], [100 x i8]* %2, i64 0, i64 0
  %155 = call i64 @strlen(i8* %154) #3
  %156 = trunc i64 %155 to i32
  store i32 %156, i32* %9, align 4
  %157 = load i32, i32* %9, align 4
  %158 = sitofp i32 %157 to double
  store double %158, double* %13, align 8
  %159 = load i32, i32* %6, align 4
  %160 = sitofp i32 %159 to double
  store double %160, double* %14, align 8
  %161 = load double, double* %14, align 8
  %162 = load double, double* %13, align 8
  %163 = fdiv double %161, %162
  %164 = load double, double* %12, align 8
  %165 = fcmp ogt double %163, %164
  br i1 %165, label %166, label %168

166:                                              ; preds = %153
  %167 = call i32 (i8*, ...) @printf(i8* getelementptr inbounds ([4 x i8], [4 x i8]* @.str.3, i64 0, i64 0))
  br label %170

168:                                              ; preds = %153
  %169 = call i32 (i8*, ...) @printf(i8* getelementptr inbounds ([3 x i8], [3 x i8]* @.str.4, i64 0, i64 0))
  br label %170

170:                                              ; preds = %168, %166
  br label %171

171:                                              ; preds = %170, %124, %121
  br label %172

172:                                              ; preds = %171, %29
  ret i32 0
}

declare dso_local i32 @__isoc99_scanf(i8*, ...) #1

; Function Attrs: nounwind readonly
declare dso_local i64 @strlen(i8*) #2

declare dso_local i32 @printf(i8*, ...) #1


!llvm.module.flags = !{!0}
!llvm.ident = !{!1}

!0 = !{i32 1, !"wchar_size", i32 4}
!1 = !{!"clang version 10.0.0-4ubuntu1 "}
